target datalayout = "e-m:e-p270:32:32-p271:32:32-p272:64:64-i64:64-i128:128-f80:128-n8:16:32:64-S128"
target triple = "x86_64-pc-linux-gnu"

%struct.archive_match = type { %struct.archive, i32, i32, %struct.match_list, %struct.match_list, i64, i32, i64, i64, i32, i64, i64, i32, i64, i64, i32, i64, i64, %struct.archive_rb_tree, %struct.entry_list, %struct.id_array, %struct.id_array, %struct.match_list, %struct.match_list }
%struct.archive = type { i32, i32, ptr, i32, ptr, i32, i32, ptr, %struct.archive_string, ptr, i32, i32, ptr, ptr, i64, i64, i64, i8, i64 }
%struct.archive_string = type { ptr, i64, i64 }
%struct.archive_rb_tree = type { ptr, ptr }
%struct.entry_list = type { ptr, ptr, i32 }
%struct.id_array = type { i64, i64, ptr }
%struct.match_list = type { ptr, ptr, i32, i32, ptr, i32 }

@.str.18 = private unnamed_addr constant [27 x i8] c"archive_match_include_date\00", align 1
@.str.35 = private unnamed_addr constant [18 x i8] c"Invalid time flag\00", align 1
@.str.36 = private unnamed_addr constant [13 x i8] c"No time flag\00", align 1
@.str.37 = private unnamed_addr constant [24 x i8] c"Invalid comparison flag\00", align 1
@.str.38 = private unnamed_addr constant [19 x i8] c"No comparison flag\00", align 1
@.str.39 = private unnamed_addr constant [14 x i8] c"date is empty\00", align 1
@.str.40 = private unnamed_addr constant [20 x i8] c"invalid date string\00", align 1

; Function Attrs: nounwind uwtable
define internal i32 @set_timefilter(ptr noundef %0, i32 noundef %1, i64 noundef %2, i64 noundef %3, i64 noundef %4, i64 noundef %5) #0 {
  %7 = alloca ptr, align 8
  %8 = alloca i32, align 4
  %9 = alloca i64, align 8
  %10 = alloca i64, align 8
  %11 = alloca i64, align 8
  %12 = alloca i64, align 8
  store ptr %0, ptr %7, align 8, !tbaa !4
  store i32 %1, ptr %8, align 4, !tbaa !43
  store i64 %2, ptr %9, align 8, !tbaa !71
  store i64 %3, ptr %10, align 8, !tbaa !71
  store i64 %4, ptr %11, align 8, !tbaa !71
  store i64 %5, ptr %12, align 8, !tbaa !71
  %13 = load i32, ptr %8, align 4, !tbaa !43
  %14 = and i32 %13, 256
  %15 = icmp ne i32 %14, 0
  br i1 %15, label %16, label %61

16:                                               ; preds = %6
  %17 = load i32, ptr %8, align 4, !tbaa !43
  %18 = and i32 %17, 1
  %19 = icmp ne i32 %18, 0
  br i1 %19, label %24, label %20

20:                                               ; preds = %16
  %21 = load i32, ptr %8, align 4, !tbaa !43
  %22 = and i32 %21, 19
  %23 = icmp eq i32 %22, 16
  br i1 %23, label %24, label %38

24:                                               ; preds = %20, %16
  %25 = load i32, ptr %8, align 4, !tbaa !43
  %26 = load ptr, ptr %7, align 8, !tbaa !4
  %27 = getelementptr inbounds nuw %struct.archive_match, ptr %26, i32 0, i32 6
  store i32 %25, ptr %27, align 8, !tbaa !77
  %28 = load i64, ptr %9, align 8, !tbaa !71
  %29 = load ptr, ptr %7, align 8, !tbaa !4
  %30 = getelementptr inbounds nuw %struct.archive_match, ptr %29, i32 0, i32 7
  store i64 %28, ptr %30, align 8, !tbaa !78
  %31 = load i64, ptr %10, align 8, !tbaa !71
  %32 = load ptr, ptr %7, align 8, !tbaa !4
  %33 = getelementptr inbounds nuw %struct.archive_match, ptr %32, i32 0, i32 8
  store i64 %31, ptr %33, align 8, !tbaa !79
  %34 = load ptr, ptr %7, align 8, !tbaa !4
  %35 = getelementptr inbounds nuw %struct.archive_match, ptr %34, i32 0, i32 1
  %36 = load i32, ptr %35, align 8, !tbaa !61
  %37 = or i32 %36, 2
  store i32 %37, ptr %35, align 8, !tbaa !61
  br label %38

38:                                               ; preds = %24, %20
  %39 = load i32, ptr %8, align 4, !tbaa !43
  %40 = and i32 %39, 2
  %41 = icmp ne i32 %40, 0
  br i1 %41, label %46, label %42

42:                                               ; preds = %38
  %43 = load i32, ptr %8, align 4, !tbaa !43
  %44 = and i32 %43, 19
  %45 = icmp eq i32 %44, 16
  br i1 %45, label %46, label %60

46:                                               ; preds = %42, %38
  %47 = load i32, ptr %8, align 4, !tbaa !43
  %48 = load ptr, ptr %7, align 8, !tbaa !4
  %49 = getelementptr inbounds nuw %struct.archive_match, ptr %48, i32 0, i32 12
  store i32 %47, ptr %49, align 8, !tbaa !80
  %50 = load i64, ptr %9, align 8, !tbaa !71
  %51 = load ptr, ptr %7, align 8, !tbaa !4
  %52 = getelementptr inbounds nuw %struct.archive_match, ptr %51, i32 0, i32 13
  store i64 %50, ptr %52, align 8, !tbaa !81
  %53 = load i64, ptr %10, align 8, !tbaa !71
  %54 = load ptr, ptr %7, align 8, !tbaa !4
  %55 = getelementptr inbounds nuw %struct.archive_match, ptr %54, i32 0, i32 14
  store i64 %53, ptr %55, align 8, !tbaa !82
  %56 = load ptr, ptr %7, align 8, !tbaa !4
  %57 = getelementptr inbounds nuw %struct.archive_match, ptr %56, i32 0, i32 1
  %58 = load i32, ptr %57, align 8, !tbaa !61
  %59 = or i32 %58, 2
  store i32 %59, ptr %57, align 8, !tbaa !61
  br label %60

60:                                               ; preds = %46, %42
  br label %61

61:                                               ; preds = %60, %6
  %62 = load i32, ptr %8, align 4, !tbaa !43
  %63 = and i32 %62, 512
  %64 = icmp ne i32 %63, 0
  br i1 %64, label %65, label %110

65:                                               ; preds = %61
  %66 = load i32, ptr %8, align 4, !tbaa !43
  %67 = and i32 %66, 1
  %68 = icmp ne i32 %67, 0
  br i1 %68, label %73, label %69

69:                                               ; preds = %65
  %70 = load i32, ptr %8, align 4, !tbaa !43
  %71 = and i32 %70, 19
  %72 = icmp eq i32 %71, 16
  br i1 %72, label %73, label %87

73:                                               ; preds = %69, %65
  %74 = load i32, ptr %8, align 4, !tbaa !43
  %75 = load ptr, ptr %7, align 8, !tbaa !4
  %76 = getelementptr inbounds nuw %struct.archive_match, ptr %75, i32 0, i32 9
  store i32 %74, ptr %76, align 8, !tbaa !70
  %77 = load i64, ptr %11, align 8, !tbaa !71
  %78 = load ptr, ptr %7, align 8, !tbaa !4
  %79 = getelementptr inbounds nuw %struct.archive_match, ptr %78, i32 0, i32 10
  store i64 %77, ptr %79, align 8, !tbaa !72
  %80 = load i64, ptr %12, align 8, !tbaa !71
  %81 = load ptr, ptr %7, align 8, !tbaa !4
  %82 = getelementptr inbounds nuw %struct.archive_match, ptr %81, i32 0, i32 11
  store i64 %80, ptr %82, align 8, !tbaa !73
  %83 = load ptr, ptr %7, align 8, !tbaa !4
  %84 = getelementptr inbounds nuw %struct.archive_match, ptr %83, i32 0, i32 1
  %85 = load i32, ptr %84, align 8, !tbaa !61
  %86 = or i32 %85, 2
  store i32 %86, ptr %84, align 8, !tbaa !61
  br label %87

87:                                               ; preds = %73, %69
  %88 = load i32, ptr %8, align 4, !tbaa !43
  %89 = and i32 %88, 2
  %90 = icmp ne i32 %89, 0
  br i1 %90, label %95, label %91

91:                                               ; preds = %87
  %92 = load i32, ptr %8, align 4, !tbaa !43
  %93 = and i32 %92, 19
  %94 = icmp eq i32 %93, 16
  br i1 %94, label %95, label %109

95:                                               ; preds = %91, %87
  %96 = load i32, ptr %8, align 4, !tbaa !43
  %97 = load ptr, ptr %7, align 8, !tbaa !4
  %98 = getelementptr inbounds nuw %struct.archive_match, ptr %97, i32 0, i32 15
  store i32 %96, ptr %98, align 8, !tbaa !74
  %99 = load i64, ptr %11, align 8, !tbaa !71
  %100 = load ptr, ptr %7, align 8, !tbaa !4
  %101 = getelementptr inbounds nuw %struct.archive_match, ptr %100, i32 0, i32 16
  store i64 %99, ptr %101, align 8, !tbaa !75
  %102 = load i64, ptr %12, align 8, !tbaa !71
  %103 = load ptr, ptr %7, align 8, !tbaa !4
  %104 = getelementptr inbounds nuw %struct.archive_match, ptr %103, i32 0, i32 17
  store i64 %102, ptr %104, align 8, !tbaa !76
  %105 = load ptr, ptr %7, align 8, !tbaa !4
  %106 = getelementptr inbounds nuw %struct.archive_match, ptr %105, i32 0, i32 1
  %107 = load i32, ptr %106, align 8, !tbaa !61
  %108 = or i32 %107, 2
  store i32 %108, ptr %106, align 8, !tbaa !61
  br label %109

109:                                              ; preds = %95, %91
  br label %110

110:                                              ; preds = %109, %61
  ret i32 0
}

; Function Attrs: nounwind uwtable
define internal i32 @set_timefilter_date(ptr noundef %0, i32 noundef %1, ptr noundef %2) #0 {
  %4 = alloca i32, align 4
  %5 = alloca ptr, align 8
  %6 = alloca i32, align 4
  %7 = alloca ptr, align 8
  %8 = alloca i64, align 8
  %9 = alloca i32, align 4
  store ptr %0, ptr %5, align 8, !tbaa !4
  store i32 %1, ptr %6, align 4, !tbaa !43
  store ptr %2, ptr %7, align 8, !tbaa !94
  call void @llvm.lifetime.start.p0(i64 8, ptr %8) #9
  %10 = load ptr, ptr %7, align 8, !tbaa !94
  %11 = icmp eq ptr %10, null
  br i1 %11, label %17, label %12

12:                                               ; preds = %3
  %13 = load ptr, ptr %7, align 8, !tbaa !94
  %14 = load i8, ptr %13, align 1, !tbaa !95
  %15 = sext i8 %14 to i32
  %16 = icmp eq i32 %15, 0
  br i1 %16, label %17, label %20

17:                                               ; preds = %12, %3
  %18 = load ptr, ptr %5, align 8, !tbaa !4
  %19 = getelementptr inbounds nuw %struct.archive_match, ptr %18, i32 0, i32 0
  call void (ptr, i32, ptr, ...) @archive_set_error(ptr noundef %19, i32 noundef 22, ptr noundef @.str.39)
  store i32 -25, ptr %4, align 4
  store i32 1, ptr %9, align 4
  br label %37

20:                                               ; preds = %12
  %21 = load ptr, ptr %5, align 8, !tbaa !4
  %22 = getelementptr inbounds nuw %struct.archive_match, ptr %21, i32 0, i32 5
  %23 = load i64, ptr %22, align 8, !tbaa !111
  %24 = load ptr, ptr %7, align 8, !tbaa !94
  %25 = call i64 @__archive_get_date(i64 noundef %23, ptr noundef %24)
  store i64 %25, ptr %8, align 8, !tbaa !71
  %26 = load i64, ptr %8, align 8, !tbaa !71
  %27 = icmp eq i64 %26, -1
  br i1 %27, label %28, label %31

28:                                               ; preds = %20
  %29 = load ptr, ptr %5, align 8, !tbaa !4
  %30 = getelementptr inbounds nuw %struct.archive_match, ptr %29, i32 0, i32 0
  call void (ptr, i32, ptr, ...) @archive_set_error(ptr noundef %30, i32 noundef 22, ptr noundef @.str.40)
  store i32 -25, ptr %4, align 4
  store i32 1, ptr %9, align 4
  br label %37

31:                                               ; preds = %20
  %32 = load ptr, ptr %5, align 8, !tbaa !4
  %33 = load i32, ptr %6, align 4, !tbaa !43
  %34 = load i64, ptr %8, align 8, !tbaa !71
  %35 = load i64, ptr %8, align 8, !tbaa !71
  %36 = call i32 @set_timefilter(ptr noundef %32, i32 noundef %33, i64 noundef %34, i64 noundef 0, i64 noundef %35, i64 noundef 0)
  store i32 %36, ptr %4, align 4
  store i32 1, ptr %9, align 4
  br label %37

37:                                               ; preds = %31, %28, %17
  call void @llvm.lifetime.end.p0(i64 8, ptr %8) #9
  %38 = load i32, ptr %4, align 4
  ret i32 %38
}

; Function Attrs: nounwind uwtable
define internal i32 @validate_time_flag(ptr noundef %0, i32 noundef %1, ptr noundef %2) #0 {
  %4 = alloca i32, align 4
  %5 = alloca ptr, align 8
  %6 = alloca i32, align 4
  %7 = alloca ptr, align 8
  %8 = alloca i32, align 4
  %9 = alloca i32, align 4
  store ptr %0, ptr %5, align 8, !tbaa !41
  store i32 %1, ptr %6, align 4, !tbaa !43
  store ptr %2, ptr %7, align 8, !tbaa !94
  br label %10

10:                                               ; preds = %3
  call void @llvm.lifetime.start.p0(i64 4, ptr %8) #9
  %11 = load ptr, ptr %5, align 8, !tbaa !41
  %12 = load ptr, ptr %7, align 8, !tbaa !94
  %13 = call i32 @__archive_check_magic(ptr noundef %11, i32 noundef 212668873, i32 noundef 1, ptr noundef %12)
  store i32 %13, ptr %8, align 4, !tbaa !43
  %14 = load i32, ptr %8, align 4, !tbaa !43
  %15 = icmp eq i32 %14, -30
  br i1 %15, label %16, label %17

16:                                               ; preds = %10
  store i32 -30, ptr %4, align 4
  store i32 1, ptr %9, align 4
  br label %18

17:                                               ; preds = %10
  store i32 0, ptr %9, align 4
  br label %18

18:                                               ; preds = %17, %16
  call void @llvm.lifetime.end.p0(i64 4, ptr %8) #9
  %19 = load i32, ptr %9, align 4
  switch i32 %19, label %48 [
    i32 0, label %20
    i32 1, label %46
  ]

20:                                               ; preds = %18
  br label %21

21:                                               ; preds = %20
  %22 = load i32, ptr %6, align 4, !tbaa !43
  %23 = and i32 %22, 64512
  %24 = icmp ne i32 %23, 0
  br i1 %24, label %25, label %27

25:                                               ; preds = %21
  %26 = load ptr, ptr %5, align 8, !tbaa !41
  call void (ptr, i32, ptr, ...) @archive_set_error(ptr noundef %26, i32 noundef 22, ptr noundef @.str.35)
  store i32 -25, ptr %4, align 4
  br label %46

27:                                               ; preds = %21
  %28 = load i32, ptr %6, align 4, !tbaa !43
  %29 = and i32 %28, 768
  %30 = icmp eq i32 %29, 0
  br i1 %30, label %31, label %33

31:                                               ; preds = %27
  %32 = load ptr, ptr %5, align 8, !tbaa !41
  call void (ptr, i32, ptr, ...) @archive_set_error(ptr noundef %32, i32 noundef 22, ptr noundef @.str.36)
  store i32 -25, ptr %4, align 4
  br label %46

33:                                               ; preds = %27
  %34 = load i32, ptr %6, align 4, !tbaa !43
  %35 = and i32 %34, 236
  %36 = icmp ne i32 %35, 0
  br i1 %36, label %37, label %39

37:                                               ; preds = %33
  %38 = load ptr, ptr %5, align 8, !tbaa !41
  call void (ptr, i32, ptr, ...) @archive_set_error(ptr noundef %38, i32 noundef 22, ptr noundef @.str.37)
  store i32 -25, ptr %4, align 4
  br label %46

39:                                               ; preds = %33
  %40 = load i32, ptr %6, align 4, !tbaa !43
  %41 = and i32 %40, 19
  %42 = icmp eq i32 %41, 0
  br i1 %42, label %43, label %45

43:                                               ; preds = %39
  %44 = load ptr, ptr %5, align 8, !tbaa !41
  call void (ptr, i32, ptr, ...) @archive_set_error(ptr noundef %44, i32 noundef 22, ptr noundef @.str.38)
  store i32 -25, ptr %4, align 4
  br label %46

45:                                               ; preds = %39
  store i32 0, ptr %4, align 4
  br label %46

46:                                               ; preds = %45, %43, %37, %31, %25, %18
  %47 = load i32, ptr %4, align 4
  ret i32 %47

48:                                               ; preds = %18
  unreachable
}

; Function Attrs: nounwind uwtable
define dso_local i32 @archive_match_include_date(ptr noundef %0, i32 noundef %1, ptr noundef %2) #0 {
  %4 = alloca i32, align 4
  %5 = alloca ptr, align 8
  %6 = alloca i32, align 4
  %7 = alloca ptr, align 8
  %8 = alloca i32, align 4
  %9 = alloca i32, align 4
  store ptr %0, ptr %5, align 8, !tbaa !41
  store i32 %1, ptr %6, align 4, !tbaa !43
  store ptr %2, ptr %7, align 8, !tbaa !94
  call void @llvm.lifetime.start.p0(i64 4, ptr %8) #9
  %10 = load ptr, ptr %5, align 8, !tbaa !41
  %11 = load i32, ptr %6, align 4, !tbaa !43
  %12 = call i32 @validate_time_flag(ptr noundef %10, i32 noundef %11, ptr noundef @.str.18)
  store i32 %12, ptr %8, align 4, !tbaa !43
  %13 = load i32, ptr %8, align 4, !tbaa !43
  %14 = icmp ne i32 %13, 0
  br i1 %14, label %15, label %17

15:                                               ; preds = %3
  %16 = load i32, ptr %8, align 4, !tbaa !43
  store i32 %16, ptr %4, align 4
  store i32 1, ptr %9, align 4
  br label %22

17:                                               ; preds = %3
  %18 = load ptr, ptr %5, align 8, !tbaa !41
  %19 = load i32, ptr %6, align 4, !tbaa !43
  %20 = load ptr, ptr %7, align 8, !tbaa !94
  %21 = call i32 @set_timefilter_date(ptr noundef %18, i32 noundef %19, ptr noundef %20)
  store i32 %21, ptr %4, align 4
  store i32 1, ptr %9, align 4
  br label %22

22:                                               ; preds = %17, %15
  call void @llvm.lifetime.end.p0(i64 4, ptr %8) #9
  %23 = load i32, ptr %4, align 4
  ret i32 %23
}