; Function Attrs: nounwind uwtable
define dso_local range(i32 -30, 1) i32 @archive_match_include_date(ptr noundef %0, i32 noundef %1, ptr noundef %2) local_unnamed_addr #0 {
  %4 = tail call i32 @__archive_check_magic(ptr noundef %0, i32 noundef 212668873, i32 noundef 1, ptr noundef nonnull @.str.18) #14
  %.not14.i = icmp eq i32 %4, -30
  br i1 %.not14.i, label %set_timefilter_date.exit, label %5

5:                                                ; preds = %3
  %6 = and i32 %1, 64512
  %.not.i = icmp eq i32 %6, 0
  br i1 %.not.i, label %7, label %.sink.split.i

7:                                                ; preds = %5
  %8 = and i32 %1, 768
  %9 = icmp eq i32 %8, 0
  br i1 %9, label %.sink.split.i, label %10

10:                                               ; preds = %7
  %11 = and i32 %1, 236
  %.not13.i = icmp eq i32 %11, 0
  br i1 %.not13.i, label %12, label %.sink.split.i

12:                                               ; preds = %10
  %13 = and i32 %1, 19
  %14 = icmp eq i32 %13, 0
  br i1 %14, label %.sink.split.i, label %validate_time_flag.exit

.sink.split.i:                                    ; preds = %12, %10, %7, %5
  %.str.38.sink.i = phi ptr [ @.str.35, %5 ], [ @.str.36, %7 ], [ @.str.37, %10 ], [ @.str.38, %12 ]
  tail call void (ptr, i32, ptr, ...) @archive_set_error(ptr noundef %0, i32 noundef 22, ptr noundef nonnull %.str.38.sink.i) #14
  br label %set_timefilter_date.exit

validate_time_flag.exit:                          ; preds = %12
  %15 = icmp eq ptr %2, null
  br i1 %15, label %19, label %16

16:                                               ; preds = %validate_time_flag.exit
  %17 = load i8, ptr %2, align 1, !tbaa !84
  %18 = icmp eq i8 %17, 0
  br i1 %18, label %19, label %20

19:                                               ; preds = %16, %validate_time_flag.exit
  tail call void (ptr, i32, ptr, ...) @archive_set_error(ptr noundef %0, i32 noundef 22, ptr noundef nonnull @.str.39) #14
  br label %set_timefilter_date.exit

20:                                               ; preds = %16
  %21 = getelementptr inbounds nuw i8, ptr %0, i64 232
  %22 = load i64, ptr %21, align 8, !tbaa !97
  %23 = tail call i64 @__archive_get_date(i64 noundef %22, ptr noundef nonnull %2) #14
  %24 = icmp eq i64 %23, -1
  br i1 %24, label %25, label %26

25:                                               ; preds = %20
  tail call void (ptr, i32, ptr, ...) @archive_set_error(ptr noundef nonnull %0, i32 noundef 22, ptr noundef nonnull @.str.40) #14
  br label %set_timefilter_date.exit

26:                                               ; preds = %20
  %27 = and i32 %1, 256
  %.not.i.i = icmp eq i32 %27, 0
  br i1 %.not.i.i, label %50, label %28

28:                                               ; preds = %26
  %29 = and i32 %1, 1
  %.not37.i.i = icmp ne i32 %29, 0
  %30 = and i32 %1, 18
  %31 = icmp eq i32 %30, 16
  %or.cond.i.i = or i1 %.not37.i.i, %31
  br i1 %or.cond.i.i, label %32, label %39

32:                                               ; preds = %28
  %33 = getelementptr inbounds nuw i8, ptr %0, i64 240
  store i32 %1, ptr %33, align 8, !tbaa !64
  %34 = getelementptr inbounds nuw i8, ptr %0, i64 248
  store i64 %23, ptr %34, align 8, !tbaa !65
  %35 = getelementptr inbounds nuw i8, ptr %0, i64 256
  store i64 0, ptr %35, align 8, !tbaa !66
  %36 = getelementptr inbounds nuw i8, ptr %0, i64 144
  %37 = load i32, ptr %36, align 8, !tbaa !48
  %38 = or i32 %37, 2
  store i32 %38, ptr %36, align 8, !tbaa !48
  br label %39

39:                                               ; preds = %32, %28
  %40 = and i32 %1, 2
  %.not38.i.i = icmp ne i32 %40, 0
  %41 = and i32 %1, 17
  %42 = icmp eq i32 %41, 16
  %or.cond44.i.i = or i1 %.not38.i.i, %42
  br i1 %or.cond44.i.i, label %43, label %50

43:                                               ; preds = %39
  %44 = getelementptr inbounds nuw i8, ptr %0, i64 288
  store i32 %1, ptr %44, align 8, !tbaa !67
  %45 = getelementptr inbounds nuw i8, ptr %0, i64 296
  store i64 %23, ptr %45, align 8, !tbaa !68
  %46 = getelementptr inbounds nuw i8, ptr %0, i64 304
  store i64 0, ptr %46, align 8, !tbaa !69
  %47 = getelementptr inbounds nuw i8, ptr %0, i64 144
  %48 = load i32, ptr %47, align 8, !tbaa !48
  %49 = or i32 %48, 2
  store i32 %49, ptr %47, align 8, !tbaa !48
  br label %50

50:                                               ; preds = %43, %39, %26
  %51 = and i32 %1, 512
  %.not39.i.i = icmp eq i32 %51, 0
  br i1 %.not39.i.i, label %set_timefilter_date.exit, label %52

52:                                               ; preds = %50
  %53 = and i32 %1, 1
  %.not40.i.i = icmp ne i32 %53, 0
  %54 = and i32 %1, 18
  %55 = icmp eq i32 %54, 16
  %or.cond46.i.i = or i1 %.not40.i.i, %55
  br i1 %or.cond46.i.i, label %56, label %63

56:                                               ; preds = %52
  %57 = getelementptr inbounds nuw i8, ptr %0, i64 264
  store i32 %1, ptr %57, align 8, !tbaa !58
  %58 = getelementptr inbounds nuw i8, ptr %0, i64 272
  store i64 %23, ptr %58, align 8, !tbaa !59
  %59 = getelementptr inbounds nuw i8, ptr %0, i64 280
  store i64 0, ptr %59, align 8, !tbaa !60
  %60 = getelementptr inbounds nuw i8, ptr %0, i64 144
  %61 = load i32, ptr %60, align 8, !tbaa !48
  %62 = or i32 %61, 2
  store i32 %62, ptr %60, align 8, !tbaa !48
  br label %63

63:                                               ; preds = %56, %52
  %64 = and i32 %1, 2
  %.not41.i.i = icmp ne i32 %64, 0
  %65 = and i32 %1, 17
  %66 = icmp eq i32 %65, 16
  %or.cond48.i.i = or i1 %.not41.i.i, %66
  br i1 %or.cond48.i.i, label %67, label %set_timefilter_date.exit

67:                                               ; preds = %63
  %68 = getelementptr inbounds nuw i8, ptr %0, i64 312
  store i32 %1, ptr %68, align 8, !tbaa !61
  %69 = getelementptr inbounds nuw i8, ptr %0, i64 320
  store i64 %23, ptr %69, align 8, !tbaa !62
  %70 = getelementptr inbounds nuw i8, ptr %0, i64 328
  store i64 0, ptr %70, align 8, !tbaa !63
  %71 = getelementptr inbounds nuw i8, ptr %0, i64 144
  %72 = load i32, ptr %71, align 8, !tbaa !48
  %73 = or i32 %72, 2
  store i32 %73, ptr %71, align 8, !tbaa !48
  br label %set_timefilter_date.exit

set_timefilter_date.exit:                         ; preds = %.sink.split.i, %3, %67, %63, %50, %25, %19
  %.0 = phi i32 [ -25, %19 ], [ -25, %25 ], [ 0, %50 ], [ 0, %63 ], [ 0, %67 ], [ -25, %.sink.split.i ], [ -30, %3 ]
  ret i32 %.0
}